target datalayout = "e-m:e-p270:32:32-p271:32:32-p272:64:64-i64:64-i128:128-f80:128-n8:16:32:64-S128"
target triple = "x86_64-pc-linux-gnu"

%struct.ScanTable = type { ptr, [64 x i8], [64 x i8] }
%struct.MpegEncContext = type { ptr, i32, i32, i32, [12 x i32], i32, %struct.ScanTable, %struct.ScanTable, [64 x i8], [64 x i8], ptr, ptr, i32, i32, i32, i32, i32, i32, i32, i32, i32, i32, i32, i32, i32, i32, i32, i32, i32, i32, i32, i32, i64, i64, ptr, %struct.BufferPoolContext, i32, i32, %union.anon, i32, %struct.MPVWorkPicture, %struct.MPVWorkPicture, %struct.MPVWorkPicture, i32, [3 x i32], ptr, [3 x ptr], ptr, ptr, ptr, ptr, ptr, ptr, [3 x ptr], i32, ptr, ptr, ptr, ptr, %struct.ScratchpadContext, i32, i32, i32, i32, i32, i32, %struct.BlockDSPContext, %struct.H264ChromaContext, %struct.HpelDSPContext, %struct.IDCTDSPContext, %struct.QpelDSPContext, %struct.VideoDSPContext, %struct.H263DSPContext, ptr, [2 x [2 x ptr]], i32, i32, [2 x [4 x [2 x i32]]], [2 x [2 x i32]], [2 x [2 x [2 x i32]]], [2 x [64 x i16]], i32, i32, i32, i32, i32, [6 x i32], [6 x i32], [3 x ptr], ptr, [64 x i16], [64 x i16], [64 x i16], [64 x i16], i32, i32, %struct.GetBitContext, i32, i32, i32, i32, i32, i32, i32, i32, i32, i32, i32, i32, i32, i32, i32, i64, i64, i16, i16, i16, i16, i32, i32, i32, i32, i32, i32, i32, i32, i32, [3 x i32], i32, i32, i32, i32, i32, i32, %struct.GetBitContext, i32, [2 x [2 x i32]], i32, i32, i32, i32, i32, i32, i32, i32, i32, i32, i32, i32, i32, i32, [2 x i32], i32, i32, ptr, ptr, ptr, ptr, ptr, i32, i32, %struct.ERContext }
%struct.BufferPoolContext = type { ptr, ptr, ptr, ptr, ptr, i32, i32, i32 }
%union.anon = type { [32 x ptr] }
%struct.MPVWorkPicture = type { [3 x ptr], [3 x i64], ptr, ptr, [2 x ptr], ptr, ptr, [2 x ptr], i32 }
%struct.ScratchpadContext = type { ptr, ptr, %union.anon.0, i32 }
%union.anon.0 = type { ptr }
%struct.BlockDSPContext = type { ptr, ptr, [2 x ptr] }
%struct.H264ChromaContext = type { [4 x ptr], [4 x ptr] }
%struct.HpelDSPContext = type { [4 x [4 x ptr]], [4 x [4 x ptr]], [4 x [4 x ptr]], [4 x ptr] }
%struct.IDCTDSPContext = type { ptr, ptr, ptr, ptr, ptr, ptr, [64 x i8], i32, i32 }
%struct.QpelDSPContext = type { [2 x [16 x ptr]], [2 x [16 x ptr]], [2 x [16 x ptr]] }
%struct.VideoDSPContext = type { ptr, ptr }
%struct.H263DSPContext = type { ptr, ptr }
%struct.GetBitContext = type { ptr, ptr, i32, i32, i32 }
%struct.ERContext = type { ptr, ptr, i32, ptr, i32, i32, i32, i64, i64, i32, i32, ptr, ptr, [3 x ptr], ptr, ptr, [2 x [4 x [2 x i32]]], %struct.ERPicture, %struct.ERPicture, %struct.ERPicture, [2 x ptr], [2 x ptr], i16, i16, i32, i32, ptr, ptr }
%struct.ERPicture = type { ptr, ptr, ptr, [2 x ptr], [2 x ptr], ptr, i32 }
%struct.AVCodecContext = type { ptr, i32, i32, ptr, i32, i32, ptr, ptr, ptr, i64, i32, i32, ptr, i32, %struct.AVRational, %struct.AVRational, %struct.AVRational, i32, i32, i32, i32, i32, %struct.AVRational, i32, i32, i32, i32, i32, i32, i32, i32, i32, i32, i32, ptr, ptr, i32, float, float, float, float, float, float, float, float, float, i32, i32, i32, i32, i32, i32, i32, i32, i32, i32, i32, i32, ptr, ptr, ptr, i32, i32, i32, i32, i32, i32, i32, i32, i32, i32, %struct.AVChannelLayout, i32, i32, i32, i32, i32, i32, i32, i32, ptr, i32, i32, i32, float, float, i32, i32, i32, i32, i32, ptr, i64, i64, float, float, i32, i32, ptr, ptr, i32, i32, i32, i32, i32, ptr, ptr, ptr, ptr, i32, i32, [8 x i64], i32, i32, i32, i32, i32, i32, i32, ptr, ptr, i32, i32, i32, i32, i32, i32, i32, i32, i32, i32, ptr, ptr, i32, i32, ptr, ptr, ptr, ptr, i32, i32, i64, i32, i32, i64, ptr, i64, ptr, i32, ptr, i32 }
%struct.AVRational = type { i32, i32 }
%struct.AVChannelLayout = type { i32, i32, %union.anon.1, ptr }
%union.anon.1 = type { i64 }

; Function Attrs: cold nounwind optsize uwtable
define internal void @dsp_init(ptr noundef %0) #0 {
  %2 = alloca ptr, align 8
  %3 = alloca i32, align 4
  store ptr %0, ptr %2, align 8, !tbaa !18
  %4 = load ptr, ptr %2, align 8, !tbaa !18
  %5 = getelementptr inbounds nuw %struct.MpegEncContext, ptr %4, i32 0, i32 66
  call void @ff_blockdsp_init(ptr noundef %5)
  %6 = load ptr, ptr %2, align 8, !tbaa !18
  %7 = getelementptr inbounds nuw %struct.MpegEncContext, ptr %6, i32 0, i32 68
  %8 = load ptr, ptr %2, align 8, !tbaa !18
  %9 = getelementptr inbounds nuw %struct.MpegEncContext, ptr %8, i32 0, i32 10
  %10 = load ptr, ptr %9, align 8, !tbaa !48
  %11 = getelementptr inbounds nuw %struct.AVCodecContext, ptr %10, i32 0, i32 10
  %12 = load i32, ptr %11, align 8, !tbaa !84
  call void @ff_hpeldsp_init(ptr noundef %7, i32 noundef %12)
  %13 = load ptr, ptr %2, align 8, !tbaa !18
  %14 = getelementptr inbounds nuw %struct.MpegEncContext, ptr %13, i32 0, i32 71
  %15 = load ptr, ptr %2, align 8, !tbaa !18
  %16 = getelementptr inbounds nuw %struct.MpegEncContext, ptr %15, i32 0, i32 10
  %17 = load ptr, ptr %16, align 8, !tbaa !48
  %18 = getelementptr inbounds nuw %struct.AVCodecContext, ptr %17, i32 0, i32 115
  %19 = load i32, ptr %18, align 4, !tbaa !126
  call void @ff_videodsp_init(ptr noundef %14, i32 noundef %19)
  %20 = load ptr, ptr %2, align 8, !tbaa !18
  %21 = getelementptr inbounds nuw %struct.MpegEncContext, ptr %20, i32 0, i32 10
  %22 = load ptr, ptr %21, align 8, !tbaa !48
  %23 = getelementptr inbounds nuw %struct.AVCodecContext, ptr %22, i32 0, i32 103
  %24 = load i32, ptr %23, align 4, !tbaa !127
  %25 = and i32 %24, 16777216
  %26 = icmp ne i32 %25, 0
  br i1 %26, label %27, label %78

27:                                               ; preds = %1
  call void @llvm.lifetime.start.p0(i64 4, ptr %3) #7
  store i32 0, ptr %3, align 4, !tbaa !13
  br label %28

28:                                               ; preds = %74, %27
  %29 = load i32, ptr %3, align 4, !tbaa !13
  %30 = icmp slt i32 %29, 4
  br i1 %30, label %31, label %77

31:                                               ; preds = %28
  %32 = load ptr, ptr %2, align 8, !tbaa !18
  %33 = getelementptr inbounds nuw %struct.MpegEncContext, ptr %32, i32 0, i32 68
  %34 = getelementptr inbounds nuw %struct.HpelDSPContext, ptr %33, i32 0, i32 1
  %35 = getelementptr inbounds [4 x [4 x ptr]], ptr %34, i64 0, i64 0
  %36 = load i32, ptr %3, align 4, !tbaa !13
  %37 = sext i32 %36 to i64
  %38 = getelementptr inbounds [4 x ptr], ptr %35, i64 0, i64 %37
  store ptr @gray16, ptr %38, align 8, !tbaa !128
  %39 = load ptr, ptr %2, align 8, !tbaa !18
  %40 = getelementptr inbounds nuw %struct.MpegEncContext, ptr %39, i32 0, i32 68
  %41 = getelementptr inbounds nuw %struct.HpelDSPContext, ptr %40, i32 0, i32 0
  %42 = getelementptr inbounds [4 x [4 x ptr]], ptr %41, i64 0, i64 0
  %43 = load i32, ptr %3, align 4, !tbaa !13
  %44 = sext i32 %43 to i64
  %45 = getelementptr inbounds [4 x ptr], ptr %42, i64 0, i64 %44
  store ptr @gray16, ptr %45, align 8, !tbaa !128
  %46 = load ptr, ptr %2, align 8, !tbaa !18
  %47 = getelementptr inbounds nuw %struct.MpegEncContext, ptr %46, i32 0, i32 68
  %48 = getelementptr inbounds nuw %struct.HpelDSPContext, ptr %47, i32 0, i32 2
  %49 = getelementptr inbounds [4 x [4 x ptr]], ptr %48, i64 0, i64 0
  %50 = load i32, ptr %3, align 4, !tbaa !13
  %51 = sext i32 %50 to i64
  %52 = getelementptr inbounds [4 x ptr], ptr %49, i64 0, i64 %51
  store ptr @gray16, ptr %52, align 8, !tbaa !128
  %53 = load ptr, ptr %2, align 8, !tbaa !18
  %54 = getelementptr inbounds nuw %struct.MpegEncContext, ptr %53, i32 0, i32 68
  %55 = getelementptr inbounds nuw %struct.HpelDSPContext, ptr %54, i32 0, i32 1
  %56 = getelementptr inbounds [4 x [4 x ptr]], ptr %55, i64 0, i64 1
  %57 = load i32, ptr %3, align 4, !tbaa !13
  %58 = sext i32 %57 to i64
  %59 = getelementptr inbounds [4 x ptr], ptr %56, i64 0, i64 %58
  store ptr @gray8, ptr %59, align 8, !tbaa !128
  %60 = load ptr, ptr %2, align 8, !tbaa !18
  %61 = getelementptr inbounds nuw %struct.MpegEncContext, ptr %60, i32 0, i32 68
  %62 = getelementptr inbounds nuw %struct.HpelDSPContext, ptr %61, i32 0, i32 0
  %63 = getelementptr inbounds [4 x [4 x ptr]], ptr %62, i64 0, i64 1
  %64 = load i32, ptr %3, align 4, !tbaa !13
  %65 = sext i32 %64 to i64
  %66 = getelementptr inbounds [4 x ptr], ptr %63, i64 0, i64 %65
  store ptr @gray8, ptr %66, align 8, !tbaa !128
  %67 = load ptr, ptr %2, align 8, !tbaa !18
  %68 = getelementptr inbounds nuw %struct.MpegEncContext, ptr %67, i32 0, i32 68
  %69 = getelementptr inbounds nuw %struct.HpelDSPContext, ptr %68, i32 0, i32 2
  %70 = getelementptr inbounds [4 x [4 x ptr]], ptr %69, i64 0, i64 1
  %71 = load i32, ptr %3, align 4, !tbaa !13
  %72 = sext i32 %71 to i64
  %73 = getelementptr inbounds [4 x ptr], ptr %70, i64 0, i64 %72
  store ptr @gray8, ptr %73, align 8, !tbaa !128
  br label %74

74:                                               ; preds = %31
  %75 = load i32, ptr %3, align 4, !tbaa !13
  %76 = add nsw i32 %75, 1
  store i32 %76, ptr %3, align 4, !tbaa !13
  br label %28, !llvm.loop !129

77:                                               ; preds = %28
  call void @llvm.lifetime.end.p0(i64 4, ptr %3) #7
  br label %78

78:                                               ; preds = %77, %1
  ret void
}