; Function Attrs: cold nounwind optsize uwtable
define internal fastcc void @dsp_init(ptr noundef %0) unnamed_addr #2 {
  %2 = getelementptr inbounds nuw i8, ptr %0, i64 1496
  tail call void @ff_blockdsp_init(ptr noundef nonnull %2) #12
  %3 = getelementptr inbounds nuw i8, ptr %0, i64 1592
  %4 = getelementptr inbounds nuw i8, ptr %0, i64 472
  %5 = load ptr, ptr %4, align 8, !tbaa !42
  %6 = getelementptr inbounds nuw i8, ptr %5, i64 64
  %7 = load i32, ptr %6, align 8, !tbaa !77
  tail call void @ff_hpeldsp_init(ptr noundef nonnull %3, i32 noundef %7) #12
  %8 = getelementptr inbounds nuw i8, ptr %0, i64 2896
  %9 = load ptr, ptr %4, align 8, !tbaa !42
  %10 = getelementptr inbounds nuw i8, ptr %9, i64 652
  %11 = load i32, ptr %10, align 4, !tbaa !119
  tail call void @ff_videodsp_init(ptr noundef nonnull %8, i32 noundef %11) #12
  %12 = load ptr, ptr %4, align 8, !tbaa !42
  %13 = getelementptr inbounds nuw i8, ptr %12, i64 524
  %14 = load i32, ptr %13, align 4, !tbaa !120
  %15 = and i32 %14, 16777216
  %.not = icmp eq i32 %15, 0
  br i1 %.not, label %.loopexit, label %.preheader

.preheader:                                       ; preds = %1
  %16 = getelementptr inbounds nuw i8, ptr %0, i64 1720
  %17 = getelementptr inbounds nuw i8, ptr %0, i64 1848
  %18 = getelementptr inbounds nuw i8, ptr %0, i64 1752
  %19 = getelementptr inbounds nuw i8, ptr %0, i64 1624
  %20 = getelementptr inbounds nuw i8, ptr %0, i64 1880
  br label %21

21:                                               ; preds = %.preheader, %21
  %indvars.iv = phi i64 [ 0, %.preheader ], [ %indvars.iv.next, %21 ]
  %22 = getelementptr inbounds nuw [4 x ptr], ptr %16, i64 0, i64 %indvars.iv
  store ptr @gray16, ptr %22, align 8, !tbaa !121
  %23 = getelementptr inbounds nuw [4 x ptr], ptr %3, i64 0, i64 %indvars.iv
  store ptr @gray16, ptr %23, align 8, !tbaa !121
  %24 = getelementptr inbounds nuw [4 x ptr], ptr %17, i64 0, i64 %indvars.iv
  store ptr @gray16, ptr %24, align 8, !tbaa !121
  %25 = getelementptr inbounds nuw [4 x ptr], ptr %18, i64 0, i64 %indvars.iv
  store ptr @gray8, ptr %25, align 8, !tbaa !121
  %26 = getelementptr inbounds nuw [4 x ptr], ptr %19, i64 0, i64 %indvars.iv
  store ptr @gray8, ptr %26, align 8, !tbaa !121
  %27 = getelementptr inbounds nuw [4 x ptr], ptr %20, i64 0, i64 %indvars.iv
  store ptr @gray8, ptr %27, align 8, !tbaa !121
  %indvars.iv.next = add nuw nsw i64 %indvars.iv, 1
  %exitcond.not = icmp eq i64 %indvars.iv.next, 4
  br i1 %exitcond.not, label %.loopexit, label %21, !llvm.loop !122

.loopexit:                                        ; preds = %21, %1
  ret void
}